; Function Attrs: nofree nounwind uwtable
define noalias noundef ptr @Acec_ManCreateCarryMap(ptr noundef readonly captures(none) %0, ptr noundef readonly captures(none) %1) local_unnamed_addr #0 {
  %3 = getelementptr i8, ptr %0, i64 24
  %.val = load i32, ptr %3, align 8, !tbaa !3
  %4 = tail call noalias dereferenceable_or_null(16) ptr @malloc(i64 noundef 16) #19
  %5 = add i32 %.val, -1
  %or.cond.i.i = icmp ult i32 %5, 15
  %spec.store.select.i.i = select i1 %or.cond.i.i, i32 16, i32 %.val
  %6 = getelementptr inbounds nuw i8, ptr %4, i64 4
  store i32 %spec.store.select.i.i, ptr %4, align 8, !tbaa !28
  %.not.i.i = icmp eq i32 %spec.store.select.i.i, 0
  br i1 %.not.i.i, label %Vec_IntAlloc.exit.thread.i, label %Vec_IntAlloc.exit.i

Vec_IntAlloc.exit.thread.i:                       ; preds = %2
  %7 = getelementptr inbounds nuw i8, ptr %4, i64 8
  store ptr null, ptr %7, align 8, !tbaa !29
  store i32 %.val, ptr %6, align 4, !tbaa !30
  br label %Vec_IntStartFull.exit

Vec_IntAlloc.exit.i:                              ; preds = %2
  %8 = sext i32 %spec.store.select.i.i to i64
  %9 = shl nsw i64 %8, 2
  %10 = tail call noalias ptr @malloc(i64 noundef %9) #19
  %11 = getelementptr inbounds nuw i8, ptr %4, i64 8
  store ptr %10, ptr %11, align 8, !tbaa !29
  store i32 %.val, ptr %6, align 4, !tbaa !30
  %.not.i = icmp eq ptr %10, null
  br i1 %.not.i, label %Vec_IntStartFull.exit, label %12

12:                                               ; preds = %Vec_IntAlloc.exit.i
  %13 = sext i32 %.val to i64
  %14 = shl nsw i64 %13, 2
  tail call void @llvm.memset.p0.i64(ptr nonnull align 4 %10, i8 -1, i64 %14, i1 false)
  br label %Vec_IntStartFull.exit

Vec_IntStartFull.exit:                            ; preds = %Vec_IntAlloc.exit.thread.i, %Vec_IntAlloc.exit.i, %12
  %.val11 = phi ptr [ null, %Vec_IntAlloc.exit.thread.i ], [ null, %Vec_IntAlloc.exit.i ], [ %10, %12 ]
  %15 = getelementptr i8, ptr %1, i64 4
  %.val912 = load i32, ptr %15, align 4, !tbaa !30
  %16 = icmp sgt i32 %.val912, 0
  br i1 %16, label %.lr.ph, label %._crit_edge

.lr.ph:                                           ; preds = %Vec_IntStartFull.exit
  %17 = getelementptr i8, ptr %1, i64 8
  %.val10 = load ptr, ptr %17, align 8, !tbaa !29
  %invariant.gep = getelementptr inbounds nuw i8, ptr %.val10, i64 16
  %18 = zext nneg i32 %.val912 to i64
  br label %19

19:                                               ; preds = %.lr.ph, %19
  %indvars.iv14 = phi i64 [ 0, %.lr.ph ], [ %indvars.iv.next15, %19 ]
  %indvars.iv = phi i64 [ 0, %.lr.ph ], [ %indvars.iv.next, %19 ]
  %gep = getelementptr inbounds nuw i32, ptr %invariant.gep, i64 %indvars.iv
  %20 = load i32, ptr %gep, align 4, !tbaa !31
  %21 = sext i32 %20 to i64
  %22 = getelementptr inbounds i32, ptr %.val11, i64 %21
  %23 = trunc nuw nsw i64 %indvars.iv14 to i32
  store i32 %23, ptr %22, align 4, !tbaa !31
  %indvars.iv.next15 = add nuw nsw i64 %indvars.iv14, 1
  %24 = mul nuw nsw i64 %indvars.iv.next15, 6
  %25 = icmp samesign ult i64 %24, %18
  %indvars.iv.next = add nuw nsw i64 %indvars.iv, 6
  br i1 %25, label %19, label %._crit_edge, !llvm.loop !32

._crit_edge:                                      ; preds = %19, %Vec_IntStartFull.exit
  ret ptr %4
}